target datalayout = "e-m:e-p270:32:32-p271:32:32-p272:64:64-i64:64-i128:128-f80:128-n8:16:32:64-S128"
target triple = "x86_64-unknown-linux-gnu"

%struct.VFIODevice = type { %struct.anon, %struct.anon.0, %struct.anon.1, ptr, ptr, ptr, ptr, ptr, i32, i32, i8, i8, i8, i8, i32, ptr, i32, i32, i32, ptr, ptr, i32, i8, i8 }
%struct.anon = type { ptr, ptr }
%struct.anon.0 = type { ptr, ptr }
%struct.anon.1 = type { ptr, ptr }
%struct.timeval = type { i64, i64 }

@trace_events_enabled_count = external global i32, align 4
@message_with_timestamp = external global i8, align 1
@qemu_loglevel = external global i32, align 4
@_TRACE_VFIO_SAVE_COMPLETE_PRECOPY_DSTATE = external global i16, align 2
@.str.40 = private unnamed_addr constant [54 x i8] c"%d@%zu.%06zu:vfio_save_complete_precopy  (%s) ret %d\0A\00", align 1
@.str.41 = private unnamed_addr constant [41 x i8] c"vfio_save_complete_precopy  (%s) ret %d\0A\00", align 1

; Function Attrs: nounwind sspstrong uwtable
define internal zeroext i1 @qemu_loglevel_mask(i32 noundef %mask) #0 {
entry:
  %mask.addr = alloca i32, align 4
  store i32 %mask, ptr %mask.addr, align 4
  %0 = load i32, ptr @qemu_loglevel, align 4
  %1 = load i32, ptr %mask.addr, align 4
  %and = and i32 %0, %1
  %cmp = icmp ne i32 %and, 0
  ret i1 %cmp
}

; Function Attrs: nounwind sspstrong uwtable
define internal void @_nocheck__trace_vfio_save_complete_precopy(ptr noundef %name, i32 noundef %ret) #0 {
entry:
  %name.addr = alloca ptr, align 8
  %ret.addr = alloca i32, align 4
  %_now = alloca %struct.timeval, align 8
  store ptr %name, ptr %name.addr, align 8
  store i32 %ret, ptr %ret.addr, align 4
  %0 = load i32, ptr @trace_events_enabled_count, align 4
  %tobool = icmp ne i32 %0, 0
  %lnot = xor i1 %tobool, true
  %lnot1 = xor i1 %lnot, true
  %lnot.ext = zext i1 %lnot1 to i32
  %conv = sext i32 %lnot.ext to i64
  %tobool2 = icmp ne i64 %conv, 0
  br i1 %tobool2, label %land.lhs.true, label %if.end11

land.lhs.true:                                    ; preds = %entry
  %1 = load i16, ptr @_TRACE_VFIO_SAVE_COMPLETE_PRECOPY_DSTATE, align 2
  %conv3 = zext i16 %1 to i32
  %tobool4 = icmp ne i32 %conv3, 0
  br i1 %tobool4, label %land.lhs.true5, label %if.end11

land.lhs.true5:                                   ; preds = %land.lhs.true
  %call = call zeroext i1 @qemu_loglevel_mask(i32 noundef 32768)
  br i1 %call, label %if.then, label %if.end11

if.then:                                          ; preds = %land.lhs.true5
  %2 = load i8, ptr @message_with_timestamp, align 1
  %tobool7 = trunc i8 %2 to i1
  br i1 %tobool7, label %if.then8, label %if.else

if.then8:                                         ; preds = %if.then
  %call9 = call i32 @gettimeofday(ptr noundef %_now, ptr noundef null) #9
  %call10 = call i32 @qemu_get_thread_id()
  %tv_sec = getelementptr inbounds %struct.timeval, ptr %_now, i32 0, i32 0
  %3 = load i64, ptr %tv_sec, align 8
  %tv_usec = getelementptr inbounds %struct.timeval, ptr %_now, i32 0, i32 1
  %4 = load i64, ptr %tv_usec, align 8
  %5 = load ptr, ptr %name.addr, align 8
  %6 = load i32, ptr %ret.addr, align 4
  call void (ptr, ...) @qemu_log(ptr noundef @.str.40, i32 noundef %call10, i64 noundef %3, i64 noundef %4, ptr noundef %5, i32 noundef %6)
  br label %if.end

if.else:                                          ; preds = %if.then
  %7 = load ptr, ptr %name.addr, align 8
  %8 = load i32, ptr %ret.addr, align 4
  call void (ptr, ...) @qemu_log(ptr noundef @.str.41, ptr noundef %7, i32 noundef %8)
  br label %if.end

if.end:                                           ; preds = %if.else, %if.then8
  br label %if.end11

if.end11:                                         ; preds = %if.end, %land.lhs.true5, %land.lhs.true, %entry
  ret void
}

; Function Attrs: nounwind sspstrong uwtable
define internal void @trace_vfio_save_complete_precopy(ptr noundef %name, i32 noundef %ret) #0 {
entry:
  %name.addr = alloca ptr, align 8
  %ret.addr = alloca i32, align 4
  store ptr %name, ptr %name.addr, align 8
  store i32 %ret, ptr %ret.addr, align 4
  %0 = load ptr, ptr %name.addr, align 8
  %1 = load i32, ptr %ret.addr, align 4
  call void @_nocheck__trace_vfio_save_complete_precopy(ptr noundef %0, i32 noundef %1)
  ret void
}

; Function Attrs: nounwind sspstrong uwtable
define internal i32 @vfio_save_complete_precopy(ptr noundef %f, ptr noundef %opaque) #0 {
entry:
  %retval = alloca i32, align 4
  %f.addr = alloca ptr, align 8
  %opaque.addr = alloca ptr, align 8
  %vbasedev = alloca ptr, align 8
  %data_size = alloca i64, align 8
  %ret = alloca i32, align 4
  store ptr %f, ptr %f.addr, align 8
  store ptr %opaque, ptr %opaque.addr, align 8
  %0 = load ptr, ptr %opaque.addr, align 8
  store ptr %0, ptr %vbasedev, align 8
  %1 = load ptr, ptr %vbasedev, align 8
  %call = call i32 @vfio_migration_set_state(ptr noundef %1, i32 noundef 3, i32 noundef 1)
  store i32 %call, ptr %ret, align 4
  %2 = load i32, ptr %ret, align 4
  %tobool = icmp ne i32 %2, 0
  br i1 %tobool, label %if.then, label %if.end

if.then:                                          ; preds = %entry
  %3 = load i32, ptr %ret, align 4
  store i32 %3, ptr %retval, align 4
  br label %return

if.end:                                           ; preds = %entry
  br label %do.body

do.body:                                          ; preds = %do.cond, %if.end
  %4 = load ptr, ptr %f.addr, align 8
  %5 = load ptr, ptr %vbasedev, align 8
  %migration = getelementptr inbounds %struct.VFIODevice, ptr %5, i32 0, i32 19
  %6 = load ptr, ptr %migration, align 8
  %call1 = call i64 @vfio_save_block(ptr noundef %4, ptr noundef %6)
  store i64 %call1, ptr %data_size, align 8
  %7 = load i64, ptr %data_size, align 8
  %cmp = icmp slt i64 %7, 0
  br i1 %cmp, label %if.then2, label %if.end3

if.then2:                                         ; preds = %do.body
  %8 = load i64, ptr %data_size, align 8
  %conv = trunc i64 %8 to i32
  store i32 %conv, ptr %retval, align 4
  br label %return

if.end3:                                          ; preds = %do.body
  br label %do.cond

do.cond:                                          ; preds = %if.end3
  %9 = load i64, ptr %data_size, align 8
  %tobool4 = icmp ne i64 %9, 0
  br i1 %tobool4, label %do.body, label %do.end, !llvm.loop !5

do.end:                                           ; preds = %do.cond
  %10 = load ptr, ptr %f.addr, align 8
  call void @qemu_put_be64(ptr noundef %10, i64 noundef -284164095)
  %11 = load ptr, ptr %f.addr, align 8
  %call5 = call i32 @qemu_file_get_error(ptr noundef %11)
  store i32 %call5, ptr %ret, align 4
  %12 = load i32, ptr %ret, align 4
  %tobool6 = icmp ne i32 %12, 0
  br i1 %tobool6, label %if.then7, label %if.end8

if.then7:                                         ; preds = %do.end
  %13 = load i32, ptr %ret, align 4
  store i32 %13, ptr %retval, align 4
  br label %return

if.end8:                                          ; preds = %do.end
  %14 = load ptr, ptr %vbasedev, align 8
  %name = getelementptr inbounds %struct.VFIODevice, ptr %14, i32 0, i32 6
  %15 = load ptr, ptr %name, align 8
  %16 = load i32, ptr %ret, align 4
  call void @trace_vfio_save_complete_precopy(ptr noundef %15, i32 noundef %16)
  %17 = load i32, ptr %ret, align 4
  store i32 %17, ptr %retval, align 4
  br label %return

return:                                           ; preds = %if.end8, %if.then7, %if.then2, %if.then
  %18 = load i32, ptr %retval, align 4
  ret i32 %18
}