; Function Attrs: nounwind sspstrong uwtable
define internal i32 @vfio_save_complete_precopy(ptr noundef %f, ptr noundef readonly captures(none) %opaque) #2 {
entry:
  %_now.i.i = alloca %struct.timeval, align 8
  %call = tail call fastcc i32 @vfio_migration_set_state(ptr noundef %opaque, i32 noundef 3, i32 noundef 1)
  %tobool.not = icmp eq i32 %call, 0
  br i1 %tobool.not, label %do.body.preheader, label %return

do.body.preheader:                                ; preds = %entry
  %migration = getelementptr inbounds nuw i8, ptr %opaque, i64 128
  br label %do.body

do.body:                                          ; preds = %do.body.preheader, %do.cond
  %0 = load ptr, ptr %migration, align 8
  %call1 = tail call fastcc i64 @vfio_save_block(ptr noundef %f, ptr noundef %0)
  %cmp = icmp slt i64 %call1, 0
  br i1 %cmp, label %if.then2, label %do.cond

if.then2:                                         ; preds = %do.body
  %conv = trunc nsw i64 %call1 to i32
  br label %return

do.cond:                                          ; preds = %do.body
  %tobool4.not = icmp eq i64 %call1, 0
  br i1 %tobool4.not, label %do.end, label %do.body, !llvm.loop !5

do.end:                                           ; preds = %do.cond
  tail call void @qemu_put_be64(ptr noundef %f, i64 noundef -284164095) #16
  %call5 = tail call i32 @qemu_file_get_error(ptr noundef %f) #16
  %tobool6.not = icmp eq i32 %call5, 0
  br i1 %tobool6.not, label %if.end8, label %return

if.end8:                                          ; preds = %do.end
  %name = getelementptr inbounds nuw i8, ptr %opaque, i64 72
  %1 = load ptr, ptr %name, align 8
  call void @llvm.lifetime.start.p0(i64 16, ptr nonnull %_now.i.i)
  %2 = load i32, ptr @trace_events_enabled_count, align 4
  %tobool.i.i = icmp ne i32 %2, 0
  %3 = load i16, ptr @_TRACE_VFIO_SAVE_COMPLETE_PRECOPY_DSTATE, align 2
  %tobool4.i.i = icmp ne i16 %3, 0
  %or.cond.i.i = select i1 %tobool.i.i, i1 %tobool4.i.i, i1 false
  br i1 %or.cond.i.i, label %land.lhs.true5.i.i, label %trace_vfio_save_complete_precopy.exit

land.lhs.true5.i.i:                               ; preds = %if.end8
  %4 = load i32, ptr @qemu_loglevel, align 4
  %and.i.i.i = and i32 %4, 32768
  %cmp.i.not.i.i = icmp eq i32 %and.i.i.i, 0
  br i1 %cmp.i.not.i.i, label %trace_vfio_save_complete_precopy.exit, label %if.then.i.i

if.then.i.i:                                      ; preds = %land.lhs.true5.i.i
  %5 = load i8, ptr @message_with_timestamp, align 1
  %tobool7.i.i = trunc i8 %5 to i1
  br i1 %tobool7.i.i, label %if.then8.i.i, label %if.else.i.i

if.then8.i.i:                                     ; preds = %if.then.i.i
  %call9.i.i = call i32 @gettimeofday(ptr noundef nonnull %_now.i.i, ptr noundef null) #16
  %call10.i.i = tail call i32 @qemu_get_thread_id() #16
  %6 = load i64, ptr %_now.i.i, align 8
  %tv_usec.i.i = getelementptr inbounds nuw i8, ptr %_now.i.i, i64 8
  %7 = load i64, ptr %tv_usec.i.i, align 8
  tail call void (ptr, ...) @qemu_log(ptr noundef nonnull @.str.40, i32 noundef %call10.i.i, i64 noundef %6, i64 noundef %7, ptr noundef %1, i32 noundef 0) #16
  br label %trace_vfio_save_complete_precopy.exit

if.else.i.i:                                      ; preds = %if.then.i.i
  tail call void (ptr, ...) @qemu_log(ptr noundef nonnull @.str.41, ptr noundef %1, i32 noundef 0) #16
  br label %trace_vfio_save_complete_precopy.exit

trace_vfio_save_complete_precopy.exit:            ; preds = %if.end8, %land.lhs.true5.i.i, %if.then8.i.i, %if.else.i.i
  call void @llvm.lifetime.end.p0(i64 16, ptr nonnull %_now.i.i)
  br label %return

return:                                           ; preds = %do.end, %entry, %trace_vfio_save_complete_precopy.exit, %if.then2
  %retval.0 = phi i32 [ %conv, %if.then2 ], [ 0, %trace_vfio_save_complete_precopy.exit ], [ %call, %entry ], [ %call5, %do.end ]
  ret i32 %retval.0
}